; ModuleID = 'source-C-CXX/51/5519.c'
source_filename = "source-C-CXX/51/5519.c"
target datalayout = "e-m:e-p270:32:32-p271:32:32-p272:64:64-i64:64-f80:128-n8:16:32:64-S128"
target triple = "x86_64-pc-linux-gnu"

@.str = private unnamed_addr constant [5 x i8] c"%d%d\00", align 1
@.str.1 = private unnamed_addr constant [3 x i8] c"%d\00", align 1
@.str.2 = private unnamed_addr constant [4 x i8] c" %d\00", align 1

; Function Attrs: nofree nounwind sspstrong uwtable
define dso_local i32 @main() local_unnamed_addr #0 {
  %1 = alloca [100 x i32], align 16
  %2 = alloca i32, align 4
  %3 = alloca i32, align 4
  %4 = bitcast [100 x i32]* %1 to i8*
  call void @llvm.lifetime.start.p0i8(i64 400, i8* nonnull %4) #4
  %5 = bitcast i32* %2 to i8*
  call void @llvm.lifetime.start.p0i8(i64 4, i8* nonnull %5) #4
  %6 = bitcast i32* %3 to i8*
  call void @llvm.lifetime.start.p0i8(i64 4, i8* nonnull %6) #4
  %7 = call i32 (i8*, ...) @__isoc99_scanf(i8* getelementptr inbounds ([5 x i8], [5 x i8]* @.str, i64 0, i64 0), i32* nonnull %2, i32* nonnull %3)
  %8 = load i32, i32* %2, align 4, !tbaa !5
  %9 = icmp sgt i32 %8, 0
  br i1 %9, label %10, label %18

10:                                               ; preds = %0, %10
  %11 = phi i64 [ %14, %10 ], [ 0, %0 ]
  %12 = getelementptr inbounds [100 x i32], [100 x i32]* %1, i64 0, i64 %11
  %13 = call i32 (i8*, ...) @__isoc99_scanf(i8* getelementptr inbounds ([3 x i8], [3 x i8]* @.str.1, i64 0, i64 0), i32* nonnull %12)
  %14 = add nuw nsw i64 %11, 1
  %15 = load i32, i32* %2, align 4, !tbaa !5
  %16 = sext i32 %15 to i64
  %17 = icmp slt i64 %14, %16
  br i1 %17, label %10, label %18, !llvm.loop !9

18:                                               ; preds = %10, %0
  %19 = phi i32 [ %8, %0 ], [ %15, %10 ]
  %20 = load i32, i32* %3, align 4, !tbaa !5
  %21 = icmp eq i32 %20, 0
  br i1 %21, label %46, label %22

22:                                               ; preds = %18
  %23 = icmp sgt i32 %19, %20
  br i1 %23, label %24, label %45

24:                                               ; preds = %22
  %25 = sext i32 %20 to i64
  br label %26

26:                                               ; preds = %24, %41
  %27 = phi i64 [ %25, %24 ], [ %42, %41 ]
  %28 = sub nuw nsw i64 %25, %27
  %29 = trunc i64 %27 to i32
  %30 = sub i32 %19, %29
  %31 = sext i32 %30 to i64
  %32 = getelementptr inbounds [100 x i32], [100 x i32]* %1, i64 0, i64 %31
  %33 = load i32, i32* %32, align 4, !tbaa !5
  br label %34

34:                                               ; preds = %34, %26
  %35 = phi i64 [ %31, %26 ], [ %37, %34 ]
  %36 = getelementptr inbounds [100 x i32], [100 x i32]* %1, i64 0, i64 %35
  %37 = add nsw i64 %35, -1
  %38 = getelementptr inbounds [100 x i32], [100 x i32]* %1, i64 0, i64 %37
  %39 = load i32, i32* %38, align 4, !tbaa !5
  store i32 %39, i32* %36, align 4, !tbaa !5
  store i32 %33, i32* %38, align 4, !tbaa !5
  %40 = icmp sgt i64 %37, %28
  br i1 %40, label %34, label %41, !llvm.loop !11

41:                                               ; preds = %34
  %42 = add nsw i64 %27, -1
  %43 = trunc i64 %42 to i32
  %44 = icmp eq i32 %43, 0
  br i1 %44, label %45, label %26, !llvm.loop !12

45:                                               ; preds = %41, %22
  store i32 0, i32* %3, align 4, !tbaa !5
  br label %46

46:                                               ; preds = %45, %18
  %47 = getelementptr inbounds [100 x i32], [100 x i32]* %1, i64 0, i64 0
  %48 = load i32, i32* %47, align 16, !tbaa !5
  %49 = call i32 (i8*, ...) @printf(i8* nonnull dereferenceable(1) getelementptr inbounds ([3 x i8], [3 x i8]* @.str.1, i64 0, i64 0), i32 %48)
  %50 = load i32, i32* %2, align 4, !tbaa !5
  %51 = icmp sgt i32 %50, 1
  br i1 %51, label %52, label %61

52:                                               ; preds = %46, %52
  %53 = phi i64 [ %57, %52 ], [ 1, %46 ]
  %54 = getelementptr inbounds [100 x i32], [100 x i32]* %1, i64 0, i64 %53
  %55 = load i32, i32* %54, align 4, !tbaa !5
  %56 = call i32 (i8*, ...) @printf(i8* nonnull dereferenceable(1) getelementptr inbounds ([4 x i8], [4 x i8]* @.str.2, i64 0, i64 0), i32 %55)
  %57 = add nuw nsw i64 %53, 1
  %58 = load i32, i32* %2, align 4, !tbaa !5
  %59 = sext i32 %58 to i64
  %60 = icmp slt i64 %57, %59
  br i1 %60, label %52, label %61, !llvm.loop !13

61:                                               ; preds = %52, %46
  call void @llvm.lifetime.end.p0i8(i64 4, i8* nonnull %6) #4
  call void @llvm.lifetime.end.p0i8(i64 4, i8* nonnull %5) #4
  call void @llvm.lifetime.end.p0i8(i64 400, i8* nonnull %4) #4
  ret i32 0
}

; Function Attrs: argmemonly mustprogress nofree nosync nounwind willreturn
declare void @llvm.lifetime.start.p0i8(i64 immarg, i8* nocapture) #1

; Function Attrs: nofree nounwind
declare noundef i32 @__isoc99_scanf(i8* nocapture noundef readonly, ...) local_unnamed_addr #2

; Function Attrs: nofree norecurse nosync nounwind sspstrong uwtable
define dso_local void @stand(i32* nocapture %0, i32 %1, i32 %2, i32 %3) local_unnamed_addr #3 {
  %5 = icmp sgt i32 %2, %3
  br i1 %5, label %6, label %20

6:                                                ; preds = %4
  %7 = sub nsw i32 %3, %1
  %8 = sub i32 %2, %1
  %9 = sext i32 %8 to i64
  %10 = sext i32 %7 to i64
  %11 = getelementptr inbounds i32, i32* %0, i64 %9
  %12 = load i32, i32* %11, align 4, !tbaa !5
  br label %13

13:                                               ; preds = %6, %13
  %14 = phi i64 [ %9, %6 ], [ %16, %13 ]
  %15 = getelementptr inbounds i32, i32* %0, i64 %14
  %16 = add nsw i64 %14, -1
  %17 = getelementptr inbounds i32, i32* %0, i64 %16
  %18 = load i32, i32* %17, align 4, !tbaa !5
  store i32 %18, i32* %15, align 4, !tbaa !5
  store i32 %12, i32* %17, align 4, !tbaa !5
  %19 = icmp sgt i64 %16, %10
  br i1 %19, label %13, label %20, !llvm.loop !11

20:                                               ; preds = %13, %4
  ret void
}

; Function Attrs: nofree nounwind
declare noundef i32 @printf(i8* nocapture noundef readonly, ...) local_unnamed_addr #2

; Function Attrs: argmemonly mustprogress nofree nosync nounwind willreturn
declare void @llvm.lifetime.end.p0i8(i64 immarg, i8* nocapture) #1


!llvm.module.flags = !{!0, !1, !2, !3}
!llvm.ident = !{!4}

!0 = !{i32 1, !"wchar_size", i32 4}
!1 = !{i32 7, !"PIC Level", i32 2}
!2 = !{i32 7, !"PIE Level", i32 2}
!3 = !{i32 7, !"uwtable", i32 1}
!4 = !{!"clang version 13.0.0"}
!5 = !{!6, !6, i64 0}
!6 = !{!"int", !7, i64 0}
!7 = !{!"omnipotent char", !8, i64 0}
!8 = !{!"Simple C/C++ TBAA"}
!9 = distinct !{!9, !10}
!10 = !{!"llvm.loop.mustprogress"}
!11 = distinct !{!11, !10}
!12 = distinct !{!12, !10}
!13 = distinct !{!13, !10}
